; Function Attrs: mustprogress nounwind uwtable
define noundef nonnull align 8 dereferenceable(24) ptr @_ZN5boost4json5value13emplace_arrayEv(ptr noundef nonnull returned align 8 dereferenceable(24) %0) local_unnamed_addr #7 align 2 {
_ZN5boost4json11storage_ptrD2Ev.exit:
  %1 = alloca %"class.boost::json::storage_ptr", align 8
  call void @_ZN5boost4json5value7destroyEv(ptr dead_on_unwind nonnull writable sret(%"class.boost::json::storage_ptr") align 8 %1, ptr noundef nonnull align 8 dereferenceable(24) %0) #48
  %2 = load i64, ptr %1, align 8, !tbaa !11
  store i64 %2, ptr %0, align 8, !tbaa !17
  %3 = getelementptr inbounds nuw i8, ptr %0, i64 8
  store i8 6, ptr %3, align 8, !tbaa !48
  %4 = getelementptr inbounds nuw i8, ptr %0, i64 16
  store ptr @_ZN5boost4json5array6empty_E, ptr %4, align 8, !tbaa !35
  ret ptr %0
}